target datalayout = "e-m:e-p270:32:32-p271:32:32-p272:64:64-i64:64-i128:128-f80:128-n8:16:32:64-S128"
target triple = "x86_64-pc-linux-gnu"

%struct.stat = type { i64, i64, i64, i32, i32, i32, i32, i64, i64, i64, i64, %struct.timespec, %struct.timespec, %struct.timespec, [3 x i64] }
%struct.timespec = type { i64, i64 }

@.str.33 = private unnamed_addr constant [55 x i8] c"Attempt to get JRE path from launcher executable path\0A\00", align 1
@.str.34 = private unnamed_addr constant [18 x i8] c"%s/lib/libjava.so\00", align 1
@.str.35 = private unnamed_addr constant [16 x i8] c"JRE path is %s\0A\00", align 1
@.str.36 = private unnamed_addr constant [54 x i8] c"Attempt to get JRE path from shared lib of the image\0A\00", align 1
@.str.37 = private unnamed_addr constant [33 x i8] c"Error: could not find libjava.so\00", align 1

; Function Attrs: nounwind uwtable
define internal zeroext i8 @GetJREPath(ptr noundef %0, i32 noundef %1, i8 noundef zeroext %2) #0 {
  %4 = alloca i8, align 1
  %5 = alloca ptr, align 8
  %6 = alloca i32, align 4
  %7 = alloca i8, align 1
  %8 = alloca [4096 x i8], align 16
  %9 = alloca %struct.stat, align 8
  store ptr %0, ptr %5, align 8
  store i32 %1, ptr %6, align 4
  store i8 %2, ptr %7, align 1
  call void (ptr, ...) @JLI_TraceLauncher(ptr noundef @.str.33)
  %10 = load ptr, ptr %5, align 8
  %11 = load i32, ptr %6, align 4
  %12 = call zeroext i8 @GetApplicationHome(ptr noundef %10, i32 noundef %11)
  %13 = icmp ne i8 %12, 0
  br i1 %13, label %14, label %24

14:                                               ; preds = %3
  %15 = getelementptr inbounds [4096 x i8], ptr %8, i64 0, i64 0
  %16 = load ptr, ptr %5, align 8
  %17 = call i32 (ptr, i64, ptr, ...) @snprintf(ptr noundef %15, i64 noundef 4096, ptr noundef @.str.34, ptr noundef %16) #7
  %18 = getelementptr inbounds [4096 x i8], ptr %8, i64 0, i64 0
  %19 = call i32 @access(ptr noundef %18, i32 noundef 0) #7
  %20 = icmp eq i32 %19, 0
  br i1 %20, label %21, label %23

21:                                               ; preds = %14
  %22 = load ptr, ptr %5, align 8
  call void (ptr, ...) @JLI_TraceLauncher(ptr noundef @.str.35, ptr noundef %22)
  store i8 1, ptr %4, align 1
  br label %44

23:                                               ; preds = %14
  br label %24

24:                                               ; preds = %23, %3
  call void (ptr, ...) @JLI_TraceLauncher(ptr noundef @.str.36)
  %25 = load ptr, ptr %5, align 8
  %26 = load i32, ptr %6, align 4
  %27 = call zeroext i8 @GetApplicationHomeFromDll(ptr noundef %25, i32 noundef %26)
  %28 = icmp ne i8 %27, 0
  br i1 %28, label %29, label %39

29:                                               ; preds = %24
  %30 = getelementptr inbounds [4096 x i8], ptr %8, i64 0, i64 0
  %31 = load ptr, ptr %5, align 8
  %32 = call i32 (ptr, i64, ptr, ...) @snprintf(ptr noundef %30, i64 noundef 4096, ptr noundef @.str.34, ptr noundef %31) #7
  %33 = getelementptr inbounds [4096 x i8], ptr %8, i64 0, i64 0
  %34 = call i32 @stat64(ptr noundef %33, ptr noundef %9) #7
  %35 = icmp eq i32 %34, 0
  br i1 %35, label %36, label %38

36:                                               ; preds = %29
  %37 = load ptr, ptr %5, align 8
  call void (ptr, ...) @JLI_TraceLauncher(ptr noundef @.str.35, ptr noundef %37)
  store i8 1, ptr %4, align 1
  br label %44

38:                                               ; preds = %29
  br label %39

39:                                               ; preds = %38, %24
  %40 = load i8, ptr %7, align 1
  %41 = icmp ne i8 %40, 0
  br i1 %41, label %43, label %42

42:                                               ; preds = %39
  call void (ptr, ...) @JLI_ReportErrorMessage(ptr noundef @.str.37)
  br label %43

43:                                               ; preds = %42, %39
  store i8 0, ptr %4, align 1
  br label %44

44:                                               ; preds = %43, %36, %21
  %45 = load i8, ptr %4, align 1
  ret i8 %45
}