; Function Attrs: nounwind uwtable
define internal fastcc zeroext range(i8 0, 2) i8 @GetJREPath(ptr noundef %0, i32 noundef %1) unnamed_addr #1 {
  %3 = alloca [4096 x i8], align 16
  %4 = alloca %struct.stat, align 8
  tail call void (ptr, ...) @JLI_TraceLauncher(ptr noundef nonnull @.str.33) #12
  %5 = tail call zeroext i8 @GetApplicationHome(ptr noundef %0, i32 noundef %1) #12
  %.not = icmp eq i8 %5, 0
  br i1 %.not, label %11, label %6

6:                                                ; preds = %2
  %7 = call i32 (ptr, i64, ptr, ...) @snprintf(ptr noundef nonnull dereferenceable(1) %3, i64 noundef 4096, ptr noundef nonnull @.str.34, ptr noundef %0) #12
  %8 = call i32 @access(ptr noundef nonnull %3, i32 noundef 0) #12
  %9 = icmp eq i32 %8, 0
  br i1 %9, label %10, label %11

10:                                               ; preds = %6
  tail call void (ptr, ...) @JLI_TraceLauncher(ptr noundef nonnull @.str.35, ptr noundef %0) #12
  br label %19

11:                                               ; preds = %6, %2
  tail call void (ptr, ...) @JLI_TraceLauncher(ptr noundef nonnull @.str.36) #12
  %12 = tail call zeroext i8 @GetApplicationHomeFromDll(ptr noundef %0, i32 noundef %1) #12
  %.not9 = icmp eq i8 %12, 0
  br i1 %.not9, label %18, label %13

13:                                               ; preds = %11
  %14 = call i32 (ptr, i64, ptr, ...) @snprintf(ptr noundef nonnull dereferenceable(1) %3, i64 noundef 4096, ptr noundef nonnull @.str.34, ptr noundef %0) #12
  %15 = call i32 @stat64(ptr noundef nonnull %3, ptr noundef nonnull %4) #12
  %16 = icmp eq i32 %15, 0
  br i1 %16, label %17, label %18

17:                                               ; preds = %13
  tail call void (ptr, ...) @JLI_TraceLauncher(ptr noundef nonnull @.str.35, ptr noundef %0) #12
  br label %19

18:                                               ; preds = %11, %13
  tail call void (ptr, ...) @JLI_ReportErrorMessage(ptr noundef nonnull @.str.37) #12
  br label %19

19:                                               ; preds = %18, %17, %10
  %.0 = phi i8 [ 1, %10 ], [ 1, %17 ], [ 0, %18 ]
  ret i8 %.0
}